target datalayout = "e-m:e-p270:32:32-p271:32:32-p272:64:64-i64:64-i128:128-f80:128-n8:16:32:64-S128"
target triple = "x86_64-pc-linux-gnu"

@hf_mpeg_descr_association_tag = internal global i32 0, align 4
@hf_mpeg_descr_association_tag_use = internal global i32 0, align 4
@hf_mpeg_descr_association_tag_selector_len = internal global i32 0, align 4
@hf_mpeg_descr_association_tag_transaction_id = internal global i32 0, align 4
@hf_mpeg_descr_association_tag_timeout = internal global i32 0, align 4
@hf_mpeg_descr_association_tag_selector_bytes = internal global i32 0, align 4
@hf_mpeg_descr_association_tag_private_bytes = internal global i32 0, align 4

; Function Attrs: null_pointer_is_valid sspstrong uwtable
define internal void @proto_mpeg_descriptor_dissect_association_tag(ptr noundef %0, i32 noundef %1, i32 noundef %2, ptr noundef %3) #1 {
  %5 = alloca ptr, align 8
  %6 = alloca i32, align 4
  %7 = alloca i32, align 4
  %8 = alloca ptr, align 8
  %9 = alloca i32, align 4
  %10 = alloca i16, align 2
  %11 = alloca i8, align 1
  %12 = alloca i32, align 4
  store ptr %0, ptr %5, align 8
  store i32 %1, ptr %6, align 4
  store i32 %2, ptr %7, align 4
  store ptr %3, ptr %8, align 8
  call void @llvm.lifetime.start.p0(i64 4, ptr %9) #4
  %13 = load i32, ptr %6, align 4
  %14 = load i32, ptr %7, align 4
  %15 = add i32 %13, %14
  store i32 %15, ptr %9, align 4
  call void @llvm.lifetime.start.p0(i64 2, ptr %10) #4
  call void @llvm.lifetime.start.p0(i64 1, ptr %11) #4
  %16 = load ptr, ptr %8, align 8
  %17 = load i32, ptr @hf_mpeg_descr_association_tag, align 4
  %18 = load ptr, ptr %5, align 8
  %19 = load i32, ptr %6, align 4
  %20 = call ptr @proto_tree_add_item(ptr noundef %16, i32 noundef %17, ptr noundef %18, i32 noundef %19, i32 noundef 2, i32 noundef 0)
  %21 = load i32, ptr %6, align 4
  %22 = add i32 %21, 2
  store i32 %22, ptr %6, align 4
  %23 = load ptr, ptr %5, align 8
  %24 = load i32, ptr %6, align 4
  %25 = call zeroext i16 @tvb_get_ntohs(ptr noundef %23, i32 noundef %24)
  store i16 %25, ptr %10, align 2
  %26 = load ptr, ptr %8, align 8
  %27 = load i32, ptr @hf_mpeg_descr_association_tag_use, align 4
  %28 = load ptr, ptr %5, align 8
  %29 = load i32, ptr %6, align 4
  %30 = call ptr @proto_tree_add_item(ptr noundef %26, i32 noundef %27, ptr noundef %28, i32 noundef %29, i32 noundef 2, i32 noundef 0)
  %31 = load i32, ptr %6, align 4
  %32 = add i32 %31, 2
  store i32 %32, ptr %6, align 4
  %33 = load ptr, ptr %5, align 8
  %34 = load i32, ptr %6, align 4
  %35 = call zeroext i8 @tvb_get_uint8(ptr noundef %33, i32 noundef %34)
  store i8 %35, ptr %11, align 1
  %36 = load ptr, ptr %8, align 8
  %37 = load i32, ptr @hf_mpeg_descr_association_tag_selector_len, align 4
  %38 = load ptr, ptr %5, align 8
  %39 = load i32, ptr %6, align 4
  %40 = call ptr @proto_tree_add_item(ptr noundef %36, i32 noundef %37, ptr noundef %38, i32 noundef %39, i32 noundef 1, i32 noundef 0)
  %41 = load i32, ptr %6, align 4
  %42 = add i32 %41, 1
  store i32 %42, ptr %6, align 4
  %43 = load i16, ptr %10, align 2
  %44 = zext i16 %43 to i32
  %45 = icmp eq i32 %44, 0
  br i1 %45, label %46, label %66

46:                                               ; preds = %4
  %47 = load i8, ptr %11, align 1
  %48 = zext i8 %47 to i32
  %49 = icmp ne i32 %48, 8
  br i1 %49, label %50, label %51

50:                                               ; preds = %46
  store i32 1, ptr %12, align 4
  br label %92

51:                                               ; preds = %46
  %52 = load ptr, ptr %8, align 8
  %53 = load i32, ptr @hf_mpeg_descr_association_tag_transaction_id, align 4
  %54 = load ptr, ptr %5, align 8
  %55 = load i32, ptr %6, align 4
  %56 = call ptr @proto_tree_add_item(ptr noundef %52, i32 noundef %53, ptr noundef %54, i32 noundef %55, i32 noundef 4, i32 noundef 0)
  %57 = load i32, ptr %6, align 4
  %58 = add i32 %57, 4
  store i32 %58, ptr %6, align 4
  %59 = load ptr, ptr %8, align 8
  %60 = load i32, ptr @hf_mpeg_descr_association_tag_timeout, align 4
  %61 = load ptr, ptr %5, align 8
  %62 = load i32, ptr %6, align 4
  %63 = call ptr @proto_tree_add_item(ptr noundef %59, i32 noundef %60, ptr noundef %61, i32 noundef %62, i32 noundef 4, i32 noundef 0)
  %64 = load i32, ptr %6, align 4
  %65 = add i32 %64, 4
  store i32 %65, ptr %6, align 4
  br label %78

66:                                               ; preds = %4
  %67 = load ptr, ptr %8, align 8
  %68 = load i32, ptr @hf_mpeg_descr_association_tag_selector_bytes, align 4
  %69 = load ptr, ptr %5, align 8
  %70 = load i32, ptr %6, align 4
  %71 = load i8, ptr %11, align 1
  %72 = zext i8 %71 to i32
  %73 = call ptr @proto_tree_add_item(ptr noundef %67, i32 noundef %68, ptr noundef %69, i32 noundef %70, i32 noundef %72, i32 noundef 0)
  %74 = load i8, ptr %11, align 1
  %75 = zext i8 %74 to i32
  %76 = load i32, ptr %6, align 4
  %77 = add i32 %76, %75
  store i32 %77, ptr %6, align 4
  br label %78

78:                                               ; preds = %66, %51
  %79 = load i32, ptr %6, align 4
  %80 = load i32, ptr %9, align 4
  %81 = icmp ult i32 %79, %80
  br i1 %81, label %82, label %91

82:                                               ; preds = %78
  %83 = load ptr, ptr %8, align 8
  %84 = load i32, ptr @hf_mpeg_descr_association_tag_private_bytes, align 4
  %85 = load ptr, ptr %5, align 8
  %86 = load i32, ptr %6, align 4
  %87 = load i32, ptr %9, align 4
  %88 = load i32, ptr %6, align 4
  %89 = sub i32 %87, %88
  %90 = call ptr @proto_tree_add_item(ptr noundef %83, i32 noundef %84, ptr noundef %85, i32 noundef %86, i32 noundef %89, i32 noundef 0)
  br label %91

91:                                               ; preds = %82, %78
  store i32 0, ptr %12, align 4
  br label %92

92:                                               ; preds = %91, %50
  call void @llvm.lifetime.end.p0(i64 1, ptr %11) #4
  call void @llvm.lifetime.end.p0(i64 2, ptr %10) #4
  call void @llvm.lifetime.end.p0(i64 4, ptr %9) #4
  %93 = load i32, ptr %12, align 4
  switch i32 %93, label %95 [
    i32 0, label %94
    i32 1, label %94
  ]

94:                                               ; preds = %92, %92
  ret void

95:                                               ; preds = %92
  unreachable
}