; Function Attrs: null_pointer_is_valid sspstrong uwtable
define internal fastcc void @proto_mpeg_descriptor_dissect_association_tag(ptr noundef %0, i32 noundef %1, i32 noundef range(i32 1, 256) %2, ptr noundef %3) unnamed_addr #1 {
  %5 = add i32 %2, %1
  %6 = load i32, ptr @hf_mpeg_descr_association_tag, align 4
  %7 = tail call ptr @proto_tree_add_item(ptr noundef %3, i32 noundef %6, ptr noundef %0, i32 noundef %1, i32 noundef 2, i32 noundef 0)
  %8 = add i32 %1, 2
  %9 = tail call zeroext i16 @tvb_get_ntohs(ptr noundef %0, i32 noundef %8)
  %10 = load i32, ptr @hf_mpeg_descr_association_tag_use, align 4
  %11 = tail call ptr @proto_tree_add_item(ptr noundef %3, i32 noundef %10, ptr noundef %0, i32 noundef %8, i32 noundef 2, i32 noundef 0)
  %12 = add i32 %1, 4
  %13 = tail call zeroext i8 @tvb_get_uint8(ptr noundef %0, i32 noundef %12)
  %14 = load i32, ptr @hf_mpeg_descr_association_tag_selector_len, align 4
  %15 = tail call ptr @proto_tree_add_item(ptr noundef %3, i32 noundef %14, ptr noundef %0, i32 noundef %12, i32 noundef 1, i32 noundef 0)
  %16 = add i32 %1, 5
  %17 = icmp eq i16 %9, 0
  br i1 %17, label %18, label %26

18:                                               ; preds = %4
  %.not = icmp eq i8 %13, 8
  br i1 %.not, label %19, label %37

19:                                               ; preds = %18
  %20 = load i32, ptr @hf_mpeg_descr_association_tag_transaction_id, align 4
  %21 = tail call ptr @proto_tree_add_item(ptr noundef %3, i32 noundef %20, ptr noundef %0, i32 noundef %16, i32 noundef 4, i32 noundef 0)
  %22 = add i32 %1, 9
  %23 = load i32, ptr @hf_mpeg_descr_association_tag_timeout, align 4
  %24 = tail call ptr @proto_tree_add_item(ptr noundef %3, i32 noundef %23, ptr noundef %0, i32 noundef %22, i32 noundef 4, i32 noundef 0)
  %25 = add i32 %1, 13
  br label %31

26:                                               ; preds = %4
  %27 = load i32, ptr @hf_mpeg_descr_association_tag_selector_bytes, align 4
  %28 = zext i8 %13 to i32
  %29 = tail call ptr @proto_tree_add_item(ptr noundef %3, i32 noundef %27, ptr noundef %0, i32 noundef %16, i32 noundef %28, i32 noundef 0)
  %30 = add i32 %16, %28
  br label %31

31:                                               ; preds = %26, %19
  %.0 = phi i32 [ %25, %19 ], [ %30, %26 ]
  %32 = icmp ult i32 %.0, %5
  br i1 %32, label %33, label %37

33:                                               ; preds = %31
  %34 = load i32, ptr @hf_mpeg_descr_association_tag_private_bytes, align 4
  %35 = sub nuw i32 %5, %.0
  %36 = tail call ptr @proto_tree_add_item(ptr noundef %3, i32 noundef %34, ptr noundef %0, i32 noundef %.0, i32 noundef %35, i32 noundef 0)
  br label %37

37:                                               ; preds = %31, %33, %18
  ret void
}